target datalayout = "e-m:e-p270:32:32-p271:32:32-p272:64:64-i64:64-i128:128-f80:128-n8:16:32:64-S128"
target triple = "x86_64-pc-linux-gnu"

; Function Attrs: mustprogress uwtable
define void @_ZNK6casadi11FmuInternal9serializeERNS_17SerializingStreamE(ptr noundef nonnull align 8 dereferenceable(744) %0, ptr noundef nonnull align 8 dereferenceable(73) %1) #4 align 2 {
  %3 = alloca ptr, align 8
  %4 = alloca ptr, align 8
  store ptr %0, ptr %3, align 8, !tbaa !41
  store ptr %1, ptr %4, align 8, !tbaa !355
  %5 = load ptr, ptr %3, align 8
  %6 = load ptr, ptr %4, align 8, !tbaa !355
  %7 = load ptr, ptr %5, align 8, !tbaa !20
  %8 = getelementptr inbounds ptr, ptr %7, i64 20
  %9 = load ptr, ptr %8, align 8
  call void %9(ptr noundef nonnull align 8 dereferenceable(744) %5, ptr noundef nonnull align 8 dereferenceable(73) %6)
  %10 = load ptr, ptr %4, align 8, !tbaa !355
  %11 = load ptr, ptr %5, align 8, !tbaa !20
  %12 = getelementptr inbounds ptr, ptr %11, i64 21
  %13 = load ptr, ptr %12, align 8
  call void %13(ptr noundef nonnull align 8 dereferenceable(744) %5, ptr noundef nonnull align 8 dereferenceable(73) %10)
  ret void
}

; Function Attrs: mustprogress uwtable
define noundef ptr @_ZNK6casadi3FmuptEv(ptr noundef nonnull align 8 dereferenceable(8) %0) #4 align 2 {
  %2 = alloca ptr, align 8
  store ptr %0, ptr %2, align 8, !tbaa !3
  %3 = load ptr, ptr %2, align 8
  %4 = call noundef ptr @_ZNK6casadi13GenericSharedINS_12SharedObjectENS_20SharedObjectInternalEEptEv(ptr noundef nonnull align 8 dereferenceable(8) %3)
  ret ptr %4
}

; Function Attrs: mustprogress uwtable
define void @_ZNK6casadi3Fmu9serializeERNS_17SerializingStreamE(ptr noundef nonnull align 8 dereferenceable(8) %0, ptr noundef nonnull align 8 dereferenceable(73) %1) #4 align 2 {
  %3 = alloca ptr, align 8
  %4 = alloca ptr, align 8
  store ptr %0, ptr %3, align 8, !tbaa !3
  store ptr %1, ptr %4, align 8, !tbaa !355
  %5 = load ptr, ptr %3, align 8
  %6 = call noundef ptr @_ZNK6casadi3FmuptEv(ptr noundef nonnull align 8 dereferenceable(8) %5)
  %7 = load ptr, ptr %4, align 8, !tbaa !355
  call void @_ZNK6casadi11FmuInternal9serializeERNS_17SerializingStreamE(ptr noundef nonnull align 8 dereferenceable(744) %6, ptr noundef nonnull align 8 dereferenceable(73) %7)
  ret void
}