; Function Attrs: mustprogress uwtable
define void @_ZNK6casadi3Fmu9serializeERNS_17SerializingStreamE(ptr noundef nonnull align 8 dereferenceable(8) %0, ptr noundef nonnull align 8 dereferenceable(73) %1) local_unnamed_addr #4 align 2 {
  %3 = tail call noundef ptr @_ZNK6casadi13GenericSharedINS_12SharedObjectENS_20SharedObjectInternalEEptEv(ptr noundef nonnull align 8 dereferenceable(8) %0)
  %4 = load ptr, ptr %3, align 8, !tbaa !23
  %5 = getelementptr inbounds nuw i8, ptr %4, i64 160
  %6 = load ptr, ptr %5, align 8
  tail call void %6(ptr noundef nonnull align 8 dereferenceable(744) %3, ptr noundef nonnull align 8 dereferenceable(73) %1)
  %7 = load ptr, ptr %3, align 8, !tbaa !23
  %8 = getelementptr inbounds nuw i8, ptr %7, i64 168
  %9 = load ptr, ptr %8, align 8
  tail call void %9(ptr noundef nonnull align 8 dereferenceable(744) %3, ptr noundef nonnull align 8 dereferenceable(73) %1)
  ret void
}